; Function Attrs: nounwind sspstrong uwtable
define dso_local i32 @bdrv_snapshot_list(ptr noundef %bs, ptr noundef %psn_info) local_unnamed_addr #0 {
entry:
  %call = tail call zeroext i1 @qemu_in_main_thread() #6
  br i1 %call, label %do.end, label %if.else

if.else:                                          ; preds = %entry
  tail call void @__assert_fail(ptr noundef nonnull @.str.6, ptr noundef nonnull @.str.7, i32 noundef 389, ptr noundef nonnull @__PRETTY_FUNCTION__.bdrv_snapshot_list) #7
  unreachable

do.end:                                           ; preds = %entry
  tail call void @bdrv_graph_rdlock_main_loop() #6
  %drv2 = getelementptr inbounds nuw i8, ptr %bs, i64 16
  %0 = load ptr, ptr %drv2, align 8
  %call3 = tail call fastcc ptr @bdrv_snapshot_fallback(ptr noundef %bs)
  %tobool.not = icmp eq ptr %0, null
  br i1 %tobool.not, label %glib_autoptr_cleanup_GraphLockableMainloop.exit, label %if.end5

if.end5:                                          ; preds = %do.end
  %bdrv_snapshot_list = getelementptr inbounds nuw i8, ptr %0, i64 264
  %1 = load ptr, ptr %bdrv_snapshot_list, align 8
  %tobool6.not = icmp eq ptr %1, null
  br i1 %tobool6.not, label %if.end10, label %if.then7

if.then7:                                         ; preds = %if.end5
  %call9 = tail call i32 %1(ptr noundef nonnull %bs, ptr noundef %psn_info) #6
  br label %glib_autoptr_cleanup_GraphLockableMainloop.exit

if.end10:                                         ; preds = %if.end5
  %tobool11.not = icmp eq ptr %call3, null
  br i1 %tobool11.not, label %glib_autoptr_cleanup_GraphLockableMainloop.exit, label %if.then12

if.then12:                                        ; preds = %if.end10
  %call13 = tail call i32 @bdrv_snapshot_list(ptr noundef nonnull %call3, ptr noundef %psn_info)
  br label %glib_autoptr_cleanup_GraphLockableMainloop.exit

glib_autoptr_cleanup_GraphLockableMainloop.exit:  ; preds = %if.end10, %do.end, %if.then12, %if.then7
  %retval.0 = phi i32 [ %call9, %if.then7 ], [ %call13, %if.then12 ], [ -123, %do.end ], [ -95, %if.end10 ]
  tail call void @bdrv_graph_rdunlock_main_loop() #6
  ret i32 %retval.0
}